; Function Attrs: nounwind uwtable
define internal i32 @discover_provider_groups(ptr noundef %0, ptr noundef %1) #2 {
  %3 = alloca %struct.provider_ctx_data_st, align 8
  call void @llvm.lifetime.start.p0(i64 16, ptr nonnull %3) #14
  store ptr %1, ptr %3, align 8, !tbaa !106
  %4 = getelementptr inbounds nuw i8, ptr %3, i64 8
  store ptr %0, ptr %4, align 8, !tbaa !109
  %5 = call i32 @OSSL_PROVIDER_get_capabilities(ptr noundef %0, ptr noundef nonnull @.str.20, ptr noundef nonnull @add_provider_groups, ptr noundef nonnull %3) #14
  call void @llvm.lifetime.end.p0(i64 16, ptr nonnull %3) #14
  ret i32 %5
}